target datalayout = "e-m:e-p270:32:32-p271:32:32-p272:64:64-i64:64-i128:128-f80:128-n8:16:32:64-S128"
target triple = "x86_64-pc-linux-gnu"

%struct.parser_st_table = type { i8, i8, i8, i32, ptr, i64, ptr, i64, i64, ptr }
%struct.parser_st_table_entry = type { i64, i64, i64 }

; Function Attrs: inlinehint nounwind sspstrong uwtable
define internal i64 @get_bins_num(ptr noundef %0) #3 {
  %2 = alloca ptr, align 8
  store ptr %0, ptr %2, align 8, !tbaa !7
  %3 = load ptr, ptr %2, align 8, !tbaa !7
  %4 = getelementptr inbounds nuw %struct.parser_st_table, ptr %3, i32 0, i32 1
  %5 = load i8, ptr %4, align 1, !tbaa !25
  %6 = zext i8 %5 to i32
  %7 = zext i32 %6 to i64
  %8 = shl i64 1, %7
  ret i64 %8
}

; Function Attrs: inlinehint nounwind sspstrong uwtable
define internal i64 @bins_mask(ptr noundef %0) #3 {
  %2 = alloca ptr, align 8
  store ptr %0, ptr %2, align 8, !tbaa !7
  %3 = load ptr, ptr %2, align 8, !tbaa !7
  %4 = call i64 @get_bins_num(ptr noundef %3)
  %5 = sub i64 %4, 1
  ret i64 %5
}

; Function Attrs: inlinehint nounwind sspstrong uwtable
define internal i64 @secondary_hash(i64 noundef %0, ptr noundef %1, ptr noundef %2) #3 {
  %4 = alloca i64, align 8
  %5 = alloca ptr, align 8
  %6 = alloca ptr, align 8
  store i64 %0, ptr %4, align 8, !tbaa !14
  store ptr %1, ptr %5, align 8, !tbaa !7
  store ptr %2, ptr %6, align 8, !tbaa !35
  %7 = load ptr, ptr %6, align 8, !tbaa !35
  %8 = load i64, ptr %7, align 8, !tbaa !14
  %9 = lshr i64 %8, 11
  store i64 %9, ptr %7, align 8, !tbaa !14
  %10 = load i64, ptr %4, align 8, !tbaa !14
  %11 = shl i64 %10, 2
  %12 = load i64, ptr %4, align 8, !tbaa !14
  %13 = add i64 %11, %12
  %14 = load ptr, ptr %6, align 8, !tbaa !35
  %15 = load i64, ptr %14, align 8, !tbaa !14
  %16 = add i64 %13, %15
  %17 = add i64 %16, 1
  store i64 %17, ptr %4, align 8, !tbaa !14
  %18 = load i64, ptr %4, align 8, !tbaa !14
  %19 = load ptr, ptr %5, align 8, !tbaa !7
  %20 = call i64 @hash_bin(i64 noundef %18, ptr noundef %19)
  ret i64 %20
}

; Function Attrs: inlinehint nounwind sspstrong uwtable
define internal i64 @get_bin(ptr noundef %0, i32 noundef %1, i64 noundef %2) #3 {
  %4 = alloca ptr, align 8
  %5 = alloca i32, align 4
  %6 = alloca i64, align 8
  store ptr %0, ptr %4, align 8, !tbaa !35
  store i32 %1, ptr %5, align 4, !tbaa !16
  store i64 %2, ptr %6, align 8, !tbaa !14
  %7 = load i32, ptr %5, align 4, !tbaa !16
  %8 = icmp eq i32 %7, 0
  br i1 %8, label %9, label %15

9:                                                ; preds = %3
  %10 = load ptr, ptr %4, align 8, !tbaa !35
  %11 = load i64, ptr %6, align 8, !tbaa !14
  %12 = getelementptr i8, ptr %10, i64 %11
  %13 = load i8, ptr %12, align 1, !tbaa !46
  %14 = zext i8 %13 to i64
  br label %42

15:                                               ; preds = %3
  %16 = load i32, ptr %5, align 4, !tbaa !16
  %17 = icmp eq i32 %16, 1
  br i1 %17, label %18, label %24

18:                                               ; preds = %15
  %19 = load ptr, ptr %4, align 8, !tbaa !35
  %20 = load i64, ptr %6, align 8, !tbaa !14
  %21 = getelementptr i16, ptr %19, i64 %20
  %22 = load i16, ptr %21, align 2, !tbaa !47
  %23 = zext i16 %22 to i64
  br label %40

24:                                               ; preds = %15
  %25 = load i32, ptr %5, align 4, !tbaa !16
  %26 = icmp eq i32 %25, 2
  br i1 %26, label %27, label %33

27:                                               ; preds = %24
  %28 = load ptr, ptr %4, align 8, !tbaa !35
  %29 = load i64, ptr %6, align 8, !tbaa !14
  %30 = getelementptr i32, ptr %28, i64 %29
  %31 = load i32, ptr %30, align 4, !tbaa !16
  %32 = zext i32 %31 to i64
  br label %38

33:                                               ; preds = %24
  %34 = load ptr, ptr %4, align 8, !tbaa !35
  %35 = load i64, ptr %6, align 8, !tbaa !14
  %36 = getelementptr i64, ptr %34, i64 %35
  %37 = load i64, ptr %36, align 8, !tbaa !14
  br label %38

38:                                               ; preds = %33, %27
  %39 = phi i64 [ %32, %27 ], [ %37, %33 ]
  br label %40

40:                                               ; preds = %38, %18
  %41 = phi i64 [ %23, %18 ], [ %39, %38 ]
  br label %42

42:                                               ; preds = %40, %9
  %43 = phi i64 [ %14, %9 ], [ %41, %40 ]
  ret i64 %43
}

; Function Attrs: inlinehint nounwind sspstrong uwtable
define internal i64 @hash_bin(i64 noundef %0, ptr noundef %1) #3 {
  %3 = alloca i64, align 8
  %4 = alloca ptr, align 8
  store i64 %0, ptr %3, align 8, !tbaa !14
  store ptr %1, ptr %4, align 8, !tbaa !7
  %5 = load i64, ptr %3, align 8, !tbaa !14
  %6 = load ptr, ptr %4, align 8, !tbaa !7
  %7 = call i64 @bins_mask(ptr noundef %6)
  %8 = and i64 %5, %7
  ret i64 %8
}

; Function Attrs: inlinehint nounwind sspstrong uwtable
define internal void @set_bin(ptr noundef %0, i32 noundef %1, i64 noundef %2, i64 noundef %3) #3 {
  %5 = alloca ptr, align 8
  %6 = alloca i32, align 4
  %7 = alloca i64, align 8
  %8 = alloca i64, align 8
  store ptr %0, ptr %5, align 8, !tbaa !35
  store i32 %1, ptr %6, align 4, !tbaa !16
  store i64 %2, ptr %7, align 8, !tbaa !14
  store i64 %3, ptr %8, align 8, !tbaa !14
  %9 = load i32, ptr %6, align 4, !tbaa !16
  %10 = icmp eq i32 %9, 0
  br i1 %10, label %11, label %17

11:                                               ; preds = %4
  %12 = load i64, ptr %8, align 8, !tbaa !14
  %13 = trunc i64 %12 to i8
  %14 = load ptr, ptr %5, align 8, !tbaa !35
  %15 = load i64, ptr %7, align 8, !tbaa !14
  %16 = getelementptr i8, ptr %14, i64 %15
  store i8 %13, ptr %16, align 1, !tbaa !46
  br label %42

17:                                               ; preds = %4
  %18 = load i32, ptr %6, align 4, !tbaa !16
  %19 = icmp eq i32 %18, 1
  br i1 %19, label %20, label %26

20:                                               ; preds = %17
  %21 = load i64, ptr %8, align 8, !tbaa !14
  %22 = trunc i64 %21 to i16
  %23 = load ptr, ptr %5, align 8, !tbaa !35
  %24 = load i64, ptr %7, align 8, !tbaa !14
  %25 = getelementptr i16, ptr %23, i64 %24
  store i16 %22, ptr %25, align 2, !tbaa !47
  br label %41

26:                                               ; preds = %17
  %27 = load i32, ptr %6, align 4, !tbaa !16
  %28 = icmp eq i32 %27, 2
  br i1 %28, label %29, label %35

29:                                               ; preds = %26
  %30 = load i64, ptr %8, align 8, !tbaa !14
  %31 = trunc i64 %30 to i32
  %32 = load ptr, ptr %5, align 8, !tbaa !35
  %33 = load i64, ptr %7, align 8, !tbaa !14
  %34 = getelementptr i32, ptr %32, i64 %33
  store i32 %31, ptr %34, align 4, !tbaa !16
  br label %40

35:                                               ; preds = %26
  %36 = load i64, ptr %8, align 8, !tbaa !14
  %37 = load ptr, ptr %5, align 8, !tbaa !35
  %38 = load i64, ptr %7, align 8, !tbaa !14
  %39 = getelementptr i64, ptr %37, i64 %38
  store i64 %36, ptr %39, align 8, !tbaa !14
  br label %40

40:                                               ; preds = %35, %29
  br label %41

41:                                               ; preds = %40, %20
  br label %42

42:                                               ; preds = %41, %11
  ret void
}

; Function Attrs: inlinehint nounwind sspstrong uwtable
define internal i32 @get_size_ind(ptr noundef %0) #3 {
  %2 = alloca ptr, align 8
  store ptr %0, ptr %2, align 8, !tbaa !7
  %3 = load ptr, ptr %2, align 8, !tbaa !7
  %4 = getelementptr inbounds nuw %struct.parser_st_table, ptr %3, i32 0, i32 2
  %5 = load i8, ptr %4, align 2, !tbaa !27
  %6 = zext i8 %5 to i32
  ret i32 %6
}

; Function Attrs: nounwind sspstrong uwtable
define internal i64 @find_table_bin_ind_direct(ptr noundef %0, i64 noundef %1, i64 noundef %2) #0 {
  %4 = alloca ptr, align 8
  %5 = alloca i64, align 8
  %6 = alloca i64, align 8
  %7 = alloca i64, align 8
  %8 = alloca i64, align 8
  %9 = alloca i64, align 8
  store ptr %0, ptr %4, align 8, !tbaa !7
  store i64 %1, ptr %5, align 8, !tbaa !14
  store i64 %2, ptr %6, align 8, !tbaa !14
  call void @llvm.lifetime.start.p0(i64 8, ptr %7) #14
  call void @llvm.lifetime.start.p0(i64 8, ptr %8) #14
  call void @llvm.lifetime.start.p0(i64 8, ptr %9) #14
  %10 = load i64, ptr %5, align 8, !tbaa !14
  %11 = load ptr, ptr %4, align 8, !tbaa !7
  %12 = call i64 @hash_bin(i64 noundef %10, ptr noundef %11)
  store i64 %12, ptr %7, align 8, !tbaa !14
  %13 = load i64, ptr %5, align 8, !tbaa !14
  store i64 %13, ptr %8, align 8, !tbaa !14
  br label %14

14:                                               ; preds = %26, %3
  %15 = load ptr, ptr %4, align 8, !tbaa !7
  %16 = getelementptr inbounds nuw %struct.parser_st_table, ptr %15, i32 0, i32 6
  %17 = load ptr, ptr %16, align 8, !tbaa !28
  %18 = load ptr, ptr %4, align 8, !tbaa !7
  %19 = call i32 @get_size_ind(ptr noundef %18)
  %20 = load i64, ptr %7, align 8, !tbaa !14
  %21 = call i64 @get_bin(ptr noundef %17, i32 noundef %19, i64 noundef %20)
  store i64 %21, ptr %9, align 8, !tbaa !14
  %22 = load i64, ptr %9, align 8, !tbaa !14
  %23 = icmp ule i64 %22, 1
  br i1 %23, label %24, label %26

24:                                               ; preds = %14
  %25 = load i64, ptr %7, align 8, !tbaa !14
  call void @llvm.lifetime.end.p0(i64 8, ptr %9) #14
  call void @llvm.lifetime.end.p0(i64 8, ptr %8) #14
  call void @llvm.lifetime.end.p0(i64 8, ptr %7) #14
  ret i64 %25

26:                                               ; preds = %14
  %27 = load i64, ptr %7, align 8, !tbaa !14
  %28 = load ptr, ptr %4, align 8, !tbaa !7
  %29 = call i64 @secondary_hash(i64 noundef %27, ptr noundef %28, ptr noundef %8)
  store i64 %29, ptr %7, align 8, !tbaa !14
  br label %14
}

; Function Attrs: inlinehint nounwind sspstrong uwtable
define internal void @st_add_direct_with_hash(ptr noundef %0, i64 noundef %1, i64 noundef %2, i64 noundef %3) #3 {
  %5 = alloca ptr, align 8
  %6 = alloca i64, align 8
  %7 = alloca i64, align 8
  %8 = alloca i64, align 8
  %9 = alloca ptr, align 8
  %10 = alloca i64, align 8
  %11 = alloca i64, align 8
  store ptr %0, ptr %5, align 8, !tbaa !7
  store i64 %1, ptr %6, align 8, !tbaa !14
  store i64 %2, ptr %7, align 8, !tbaa !14
  store i64 %3, ptr %8, align 8, !tbaa !14
  call void @llvm.lifetime.start.p0(i64 8, ptr %9) #14
  call void @llvm.lifetime.start.p0(i64 8, ptr %10) #14
  call void @llvm.lifetime.start.p0(i64 8, ptr %11) #14
  %12 = load ptr, ptr %5, align 8, !tbaa !7
  call void @rebuild_table_if_necessary(ptr noundef %12)
  %13 = load ptr, ptr %5, align 8, !tbaa !7
  %14 = getelementptr inbounds nuw %struct.parser_st_table, ptr %13, i32 0, i32 8
  %15 = load i64, ptr %14, align 8, !tbaa !33
  %16 = add i64 %15, 1
  store i64 %16, ptr %14, align 8, !tbaa !33
  store i64 %15, ptr %10, align 8, !tbaa !14
  %17 = load ptr, ptr %5, align 8, !tbaa !7
  %18 = getelementptr inbounds nuw %struct.parser_st_table, ptr %17, i32 0, i32 9
  %19 = load ptr, ptr %18, align 8, !tbaa !29
  %20 = load i64, ptr %10, align 8, !tbaa !14
  %21 = getelementptr %struct.parser_st_table_entry, ptr %19, i64 %20
  store ptr %21, ptr %9, align 8, !tbaa !40
  %22 = load i64, ptr %8, align 8, !tbaa !14
  %23 = load ptr, ptr %9, align 8, !tbaa !40
  %24 = getelementptr inbounds nuw %struct.parser_st_table_entry, ptr %23, i32 0, i32 0
  store i64 %22, ptr %24, align 8, !tbaa !41
  %25 = load i64, ptr %6, align 8, !tbaa !14
  %26 = load ptr, ptr %9, align 8, !tbaa !40
  %27 = getelementptr inbounds nuw %struct.parser_st_table_entry, ptr %26, i32 0, i32 1
  store i64 %25, ptr %27, align 8, !tbaa !42
  %28 = load i64, ptr %7, align 8, !tbaa !14
  %29 = load ptr, ptr %9, align 8, !tbaa !40
  %30 = getelementptr inbounds nuw %struct.parser_st_table_entry, ptr %29, i32 0, i32 2
  store i64 %28, ptr %30, align 8, !tbaa !36
  %31 = load ptr, ptr %5, align 8, !tbaa !7
  %32 = getelementptr inbounds nuw %struct.parser_st_table, ptr %31, i32 0, i32 5
  %33 = load i64, ptr %32, align 8, !tbaa !32
  %34 = add i64 %33, 1
  store i64 %34, ptr %32, align 8, !tbaa !32
  %35 = load ptr, ptr %5, align 8, !tbaa !7
  %36 = getelementptr inbounds nuw %struct.parser_st_table, ptr %35, i32 0, i32 6
  %37 = load ptr, ptr %36, align 8, !tbaa !28
  %38 = icmp ne ptr %37, null
  br i1 %38, label %39, label %52

39:                                               ; preds = %4
  %40 = load ptr, ptr %5, align 8, !tbaa !7
  %41 = load i64, ptr %8, align 8, !tbaa !14
  %42 = load i64, ptr %6, align 8, !tbaa !14
  %43 = call i64 @find_table_bin_ind_direct(ptr noundef %40, i64 noundef %41, i64 noundef %42)
  store i64 %43, ptr %11, align 8, !tbaa !14
  %44 = load ptr, ptr %5, align 8, !tbaa !7
  %45 = getelementptr inbounds nuw %struct.parser_st_table, ptr %44, i32 0, i32 6
  %46 = load ptr, ptr %45, align 8, !tbaa !28
  %47 = load ptr, ptr %5, align 8, !tbaa !7
  %48 = call i32 @get_size_ind(ptr noundef %47)
  %49 = load i64, ptr %11, align 8, !tbaa !14
  %50 = load i64, ptr %10, align 8, !tbaa !14
  %51 = add i64 %50, 2
  call void @set_bin(ptr noundef %46, i32 noundef %48, i64 noundef %49, i64 noundef %51)
  br label %52

52:                                               ; preds = %39, %4
  call void @llvm.lifetime.end.p0(i64 8, ptr %11) #14
  call void @llvm.lifetime.end.p0(i64 8, ptr %10) #14
  call void @llvm.lifetime.end.p0(i64 8, ptr %9) #14
  ret void
}