; Function Attrs: inlinehint nounwind sspstrong uwtable
define internal fastcc void @st_add_direct_with_hash(ptr noundef captures(none) %0, i64 noundef %1, i64 noundef %2, i64 noundef %3) unnamed_addr #8 {
  tail call fastcc void @rebuild_table_if_necessary(ptr noundef %0)
  %5 = getelementptr inbounds nuw i8, ptr %0, i64 40
  %6 = load i64, ptr %5, align 8, !tbaa !30
  %7 = add i64 %6, 1
  store i64 %7, ptr %5, align 8, !tbaa !30
  %8 = getelementptr inbounds nuw i8, ptr %0, i64 48
  %9 = load ptr, ptr %8, align 8, !tbaa !25
  %10 = getelementptr %struct.parser_st_table_entry, ptr %9, i64 %6
  store i64 %3, ptr %10, align 8, !tbaa !32
  %11 = getelementptr inbounds nuw i8, ptr %10, i64 8
  store i64 %1, ptr %11, align 8, !tbaa !34
  %12 = getelementptr inbounds nuw i8, ptr %10, i64 16
  store i64 %2, ptr %12, align 8, !tbaa !48
  %13 = getelementptr inbounds nuw i8, ptr %0, i64 16
  %14 = load i64, ptr %13, align 8, !tbaa !26
  %15 = add i64 %14, 1
  store i64 %15, ptr %13, align 8, !tbaa !26
  %16 = getelementptr inbounds nuw i8, ptr %0, i64 24
  %17 = load ptr, ptr %16, align 8, !tbaa !23
  %.not = icmp eq ptr %17, null
  br i1 %.not, label %set_bin.exit, label %18

18:                                               ; preds = %4
  %19 = getelementptr i8, ptr %0, i64 1
  %.val.i = load i8, ptr %19, align 1, !tbaa !20
  %20 = zext nneg i8 %.val.i to i64
  %notmask.i.i.i = shl nsw i64 -1, %20
  %21 = xor i64 %notmask.i.i.i, -1
  %22 = getelementptr i8, ptr %0, i64 2
  %.val9.i = load i8, ptr %22, align 2, !tbaa !22
  %.028.i = and i64 %3, %21
  switch i8 %.val9.i, label %.split.i [
    i8 0, label %.split.us.i
    i8 1, label %.split.us14.i
    i8 2, label %.split.us21.i
  ]

.split.us.i:                                      ; preds = %18
  %23 = getelementptr i8, ptr %17, i64 %.028.i
  %24 = load i8, ptr %23, align 1, !tbaa !42
  %25 = icmp ult i8 %24, 2
  br i1 %25, label %find_table_bin_ind_direct.exit.thread, label %get_bin.exit.us.i

find_table_bin_ind_direct.exit.thread:            ; preds = %.split.us.i
  %26 = add i64 %6, 2
  br label %67

get_bin.exit.us.i:                                ; preds = %.split.us.i, %get_bin.exit.us.i
  %.0.us33.i = phi i64 [ %.0.us.i, %get_bin.exit.us.i ], [ %.028.i, %.split.us.i ]
  %.011.us32.i = phi i64 [ %27, %get_bin.exit.us.i ], [ %3, %.split.us.i ]
  %27 = lshr i64 %.011.us32.i, 11
  %28 = mul i64 %.0.us33.i, 5
  %29 = add i64 %28, 1
  %30 = add i64 %29, %27
  %.0.us.i = and i64 %30, %21
  %31 = getelementptr i8, ptr %17, i64 %.0.us.i
  %32 = load i8, ptr %31, align 1, !tbaa !42
  %33 = icmp ult i8 %32, 2
  br i1 %33, label %find_table_bin_ind_direct.exit, label %get_bin.exit.us.i

.split.us14.i:                                    ; preds = %18
  %34 = getelementptr i16, ptr %17, i64 %.028.i
  %35 = load i16, ptr %34, align 2, !tbaa !43
  %36 = icmp ult i16 %35, 2
  br i1 %36, label %find_table_bin_ind_direct.exit.thread20, label %get_bin.exit.us18.i

find_table_bin_ind_direct.exit.thread20:          ; preds = %.split.us14.i
  %37 = add i64 %6, 2
  br label %71

get_bin.exit.us18.i:                              ; preds = %.split.us14.i, %get_bin.exit.us18.i
  %.0.us1738.i = phi i64 [ %.0.us17.i, %get_bin.exit.us18.i ], [ %.028.i, %.split.us14.i ]
  %.011.us1537.i = phi i64 [ %38, %get_bin.exit.us18.i ], [ %3, %.split.us14.i ]
  %38 = lshr i64 %.011.us1537.i, 11
  %39 = mul i64 %.0.us1738.i, 5
  %40 = add i64 %39, 1
  %41 = add i64 %40, %38
  %.0.us17.i = and i64 %41, %21
  %42 = getelementptr i16, ptr %17, i64 %.0.us17.i
  %43 = load i16, ptr %42, align 2, !tbaa !43
  %44 = icmp ult i16 %43, 2
  br i1 %44, label %find_table_bin_ind_direct.exit, label %get_bin.exit.us18.i

.split.us21.i:                                    ; preds = %18
  %45 = getelementptr i32, ptr %17, i64 %.028.i
  %46 = load i32, ptr %45, align 4, !tbaa !45
  %47 = icmp ult i32 %46, 2
  br i1 %47, label %find_table_bin_ind_direct.exit.thread23, label %get_bin.exit.us25.i

find_table_bin_ind_direct.exit.thread23:          ; preds = %.split.us21.i
  %48 = add i64 %6, 2
  br label %75

get_bin.exit.us25.i:                              ; preds = %.split.us21.i, %get_bin.exit.us25.i
  %.0.us2443.i = phi i64 [ %.0.us24.i, %get_bin.exit.us25.i ], [ %.028.i, %.split.us21.i ]
  %.011.us2242.i = phi i64 [ %49, %get_bin.exit.us25.i ], [ %3, %.split.us21.i ]
  %49 = lshr i64 %.011.us2242.i, 11
  %50 = mul i64 %.0.us2443.i, 5
  %51 = add i64 %50, 1
  %52 = add i64 %51, %49
  %.0.us24.i = and i64 %52, %21
  %53 = getelementptr i32, ptr %17, i64 %.0.us24.i
  %54 = load i32, ptr %53, align 4, !tbaa !45
  %55 = icmp ult i32 %54, 2
  br i1 %55, label %find_table_bin_ind_direct.exit, label %get_bin.exit.us25.i

.split.i:                                         ; preds = %18
  %56 = getelementptr i64, ptr %17, i64 %.028.i
  %57 = load i64, ptr %56, align 8, !tbaa !46
  %58 = icmp ult i64 %57, 2
  br i1 %58, label %find_table_bin_ind_direct.exit, label %get_bin.exit.i

get_bin.exit.i:                                   ; preds = %.split.i, %get_bin.exit.i
  %.030.i = phi i64 [ %.0.i, %get_bin.exit.i ], [ %.028.i, %.split.i ]
  %.01129.i = phi i64 [ %59, %get_bin.exit.i ], [ %3, %.split.i ]
  %59 = lshr i64 %.01129.i, 11
  %60 = mul i64 %.030.i, 5
  %61 = add i64 %60, 1
  %62 = add i64 %61, %59
  %.0.i = and i64 %62, %21
  %63 = getelementptr i64, ptr %17, i64 %.0.i
  %64 = load i64, ptr %63, align 8, !tbaa !46
  %65 = icmp ult i64 %64, 2
  br i1 %65, label %find_table_bin_ind_direct.exit, label %get_bin.exit.i

find_table_bin_ind_direct.exit:                   ; preds = %get_bin.exit.us25.i, %get_bin.exit.us18.i, %get_bin.exit.us.i, %get_bin.exit.i, %.split.i
  %.us-phi.i = phi i64 [ %.028.i, %.split.i ], [ %.0.i, %get_bin.exit.i ], [ %.0.us.i, %get_bin.exit.us.i ], [ %.0.us17.i, %get_bin.exit.us18.i ], [ %.0.us24.i, %get_bin.exit.us25.i ]
  %66 = add i64 %6, 2
  switch i8 %.val9.i, label %79 [
    i8 0, label %67
    i8 1, label %71
    i8 2, label %75
  ]

67:                                               ; preds = %find_table_bin_ind_direct.exit.thread, %find_table_bin_ind_direct.exit
  %68 = phi i64 [ %26, %find_table_bin_ind_direct.exit.thread ], [ %66, %find_table_bin_ind_direct.exit ]
  %.us-phi.i19 = phi i64 [ %.028.i, %find_table_bin_ind_direct.exit.thread ], [ %.us-phi.i, %find_table_bin_ind_direct.exit ]
  %69 = trunc i64 %68 to i8
  %70 = getelementptr i8, ptr %17, i64 %.us-phi.i19
  store i8 %69, ptr %70, align 1, !tbaa !42
  br label %set_bin.exit

71:                                               ; preds = %find_table_bin_ind_direct.exit.thread20, %find_table_bin_ind_direct.exit
  %72 = phi i64 [ %37, %find_table_bin_ind_direct.exit.thread20 ], [ %66, %find_table_bin_ind_direct.exit ]
  %.us-phi.i22 = phi i64 [ %.028.i, %find_table_bin_ind_direct.exit.thread20 ], [ %.us-phi.i, %find_table_bin_ind_direct.exit ]
  %73 = trunc i64 %72 to i16
  %74 = getelementptr i16, ptr %17, i64 %.us-phi.i22
  store i16 %73, ptr %74, align 2, !tbaa !43
  br label %set_bin.exit

75:                                               ; preds = %find_table_bin_ind_direct.exit.thread23, %find_table_bin_ind_direct.exit
  %76 = phi i64 [ %48, %find_table_bin_ind_direct.exit.thread23 ], [ %66, %find_table_bin_ind_direct.exit ]
  %.us-phi.i25 = phi i64 [ %.028.i, %find_table_bin_ind_direct.exit.thread23 ], [ %.us-phi.i, %find_table_bin_ind_direct.exit ]
  %77 = trunc i64 %76 to i32
  %78 = getelementptr i32, ptr %17, i64 %.us-phi.i25
  store i32 %77, ptr %78, align 4, !tbaa !45
  br label %set_bin.exit

79:                                               ; preds = %find_table_bin_ind_direct.exit
  %80 = getelementptr i64, ptr %17, i64 %.us-phi.i
  store i64 %66, ptr %80, align 8, !tbaa !46
  br label %set_bin.exit

set_bin.exit:                                     ; preds = %79, %75, %71, %67, %4
  ret void
}